; Function Attrs: nounwind uwtable
define internal ptr @multissl_get_internals(ptr noundef %0, i32 noundef %1) #2 {
  %3 = load ptr, ptr @Curl_ssl, align 8
  %.not.i = icmp ne ptr %3, @Curl_ssl_multi
  %4 = load ptr, ptr @available_backends, align 16
  %.not15.i = icmp eq ptr %4, null
  %or.cond = select i1 %.not.i, i1 true, i1 %.not15.i
  br i1 %or.cond, label %multissl_setup.exit, label %5

5:                                                ; preds = %2
  %6 = tail call ptr @curl_getenv(ptr noundef nonnull @.str.14) #18
  %.not16.i = icmp eq ptr %6, null
  %7 = load ptr, ptr @available_backends, align 16
  %.not1720.i = icmp eq ptr %7, null
  %or.cond.i = select i1 %.not16.i, i1 true, i1 %.not1720.i
  br i1 %or.cond.i, label %.loopexit.i, label %.lr.ph.i

8:                                                ; preds = %.lr.ph.i
  %indvars.iv.next.i = add nuw nsw i64 %indvars.iv.i, 1
  %9 = getelementptr inbounds nuw [2 x ptr], ptr @available_backends, i64 0, i64 %indvars.iv.next.i
  %10 = load ptr, ptr %9, align 8
  %.not17.i = icmp eq ptr %10, null
  br i1 %.not17.i, label %.loopexit.loopexit.i, label %.lr.ph.i, !llvm.loop !5

.lr.ph.i:                                         ; preds = %5, %8
  %indvars.iv.i = phi i64 [ %indvars.iv.next.i, %8 ], [ 0, %5 ]
  %11 = phi ptr [ %10, %8 ], [ %7, %5 ]
  %12 = getelementptr inbounds nuw i8, ptr %11, i64 8
  %13 = load ptr, ptr %12, align 8
  %14 = tail call i32 @curl_strequal(ptr noundef nonnull %6, ptr noundef %13) #18
  %.not18.i = icmp eq i32 %14, 0
  br i1 %.not18.i, label %8, label %15

15:                                               ; preds = %.lr.ph.i
  %16 = getelementptr inbounds nuw [2 x ptr], ptr @available_backends, i64 0, i64 %indvars.iv.i
  %17 = load ptr, ptr %16, align 8
  br label %.loopexit.i

.loopexit.loopexit.i:                             ; preds = %8
  %.pre.i = load ptr, ptr @available_backends, align 16
  br label %.loopexit.i

.loopexit.i:                                      ; preds = %5, %.loopexit.loopexit.i, %15
  %.sink = phi ptr [ %17, %15 ], [ %.pre.i, %.loopexit.loopexit.i ], [ %7, %5 ]
  store ptr %.sink, ptr @Curl_ssl, align 8
  %18 = load ptr, ptr @Curl_cfree, align 8
  tail call void %18(ptr noundef %6) #18
  %19 = load ptr, ptr @Curl_ssl, align 8
  %20 = getelementptr inbounds nuw i8, ptr %19, i64 120
  %21 = load ptr, ptr %20, align 8
  %22 = tail call ptr %21(ptr noundef %0, i32 noundef %1) #18
  br label %multissl_setup.exit

multissl_setup.exit:                              ; preds = %2, %.loopexit.i
  %.0 = phi ptr [ %22, %.loopexit.i ], [ null, %2 ]
  ret ptr %.0
}